; Function Attrs: mustprogress uwtable
define hidden void @_ZN2cv3hal12cpu_baseline23cvtRGBAtoMultipliedRGBAEPKhmPhmii(ptr noundef %0, i64 noundef %1, ptr noundef %2, i64 noundef %3, i32 noundef %4, i32 noundef %5) local_unnamed_addr #0 personality ptr @__gxx_personality_v0 {
  %7 = alloca %"class.cv::Range", align 4
  %8 = alloca %"class.cv::impl::(anonymous namespace)::CvtColorLoop_Invoker.26", align 8
  %9 = alloca %"class.cv::utils::trace::details::Region", align 8
  %10 = alloca %"struct.cv::hal::cpu_baseline::(anonymous namespace)::RGBA2mRGBA", align 1
  call void @_ZN2cv5utils5trace7details6RegionC1ERKNS3_21LocationStaticStorageE(ptr noundef nonnull align 8 dereferenceable(12) %9, ptr noundef nonnull align 8 dereferenceable(32) @_ZZN2cv3hal12cpu_baseline23cvtRGBAtoMultipliedRGBAEPKhmPhmiiE26__cv_trace_location_fn1203)
  call void @llvm.lifetime.start.p0(i64 8, ptr nonnull %7)
  call void @llvm.lifetime.start.p0(i64 56, ptr nonnull %8)
  store i32 0, ptr %7, align 4
  %11 = getelementptr inbounds i8, ptr %7, i64 4
  store i32 %5, ptr %11, align 4
  store ptr getelementptr inbounds inrange(-16, 24) (i8, ptr @_ZTVN2cv4impl12_GLOBAL__N_120CvtColorLoop_InvokerINS_3hal12cpu_baseline12_GLOBAL__N_110RGBA2mRGBAIhEEEE, i64 16), ptr %8, align 8
  %12 = getelementptr inbounds i8, ptr %8, i64 8
  store ptr %0, ptr %12, align 8
  %13 = getelementptr inbounds i8, ptr %8, i64 16
  store i64 %1, ptr %13, align 8
  %14 = getelementptr inbounds i8, ptr %8, i64 24
  store ptr %2, ptr %14, align 8
  %15 = getelementptr inbounds i8, ptr %8, i64 32
  store i64 %3, ptr %15, align 8
  %16 = getelementptr inbounds i8, ptr %8, i64 40
  store i32 %4, ptr %16, align 8
  %17 = getelementptr inbounds i8, ptr %8, i64 48
  store ptr %10, ptr %17, align 8
  %18 = mul nsw i32 %5, %4
  %19 = sitofp i32 %18 to double
  %20 = fmul double %19, 0x3EF0000000000000
  invoke void @_ZN2cv13parallel_for_ERKNS_5RangeERKNS_16ParallelLoopBodyEd(ptr noundef nonnull align 4 dereferenceable(8) %7, ptr noundef nonnull align 8 dereferenceable(8) %8, double noundef %20)
          to label %22 unwind label %.body

.body:                                            ; preds = %6
  %21 = landingpad { ptr, i32 }
          cleanup
  call void @_ZN2cv16ParallelLoopBodyD2Ev(ptr noundef nonnull align 8 dereferenceable(8) %8) #11
  call void @_ZN2cv5utils5trace7details6RegionD2Ev(ptr noundef nonnull align 8 dereferenceable(12) %9) #11
  resume { ptr, i32 } %21

22:                                               ; preds = %6
  call void @_ZN2cv16ParallelLoopBodyD2Ev(ptr noundef nonnull align 8 dereferenceable(8) %8) #11
  call void @llvm.lifetime.end.p0(i64 8, ptr nonnull %7)
  call void @llvm.lifetime.end.p0(i64 56, ptr nonnull %8)
  %23 = getelementptr inbounds i8, ptr %9, i64 8
  %24 = load i32, ptr %23, align 8
  %.not.i = icmp eq i32 %24, 0
  br i1 %.not.i, label %_ZN2cv5utils5trace7details6RegionD2Ev.exit, label %25

25:                                               ; preds = %22
  invoke void @_ZN2cv5utils5trace7details6Region7destroyEv(ptr noundef nonnull align 8 dereferenceable(12) %9)
          to label %_ZN2cv5utils5trace7details6RegionD2Ev.exit unwind label %26

26:                                               ; preds = %25
  %27 = landingpad { ptr, i32 }
          catch ptr null
  %28 = extractvalue { ptr, i32 } %27, 0
  call void @__clang_call_terminate(ptr %28) #13
  unreachable

_ZN2cv5utils5trace7details6RegionD2Ev.exit:       ; preds = %22, %25
  ret void
}